target datalayout = "e-m:e-p270:32:32-p271:32:32-p272:64:64-i64:64-i128:128-f80:128-n8:16:32:64-S128"
target triple = "x86_64-pc-linux-gnu"

%struct.object_id = type { [32 x i8], i32 }
%struct.patch = type { ptr, ptr, ptr, i32, i32, i32, i32, i32, i32, i32, i32, i32, i32, i16, ptr, ptr, i64, [65 x i8], [65 x i8], ptr, [3 x %struct.object_id] }
%struct.gitdiff_data = type { ptr, i32, i32 }

@.str.23 = private unnamed_addr constant [1 x i8] zeroinitializer, align 1
@git_gettext_enabled = external global i32, align 4
@sane_ctype = external constant [256 x i8], align 16
@.str.131 = private unnamed_addr constant [28 x i8] c"invalid mode on line %d: %s\00", align 1

; Function Attrs: inlinehint nounwind uwtable
define internal i32 @canon_mode(i32 noundef %0) #3 {
  %2 = alloca i32, align 4
  %3 = alloca i32, align 4
  store i32 %0, ptr %3, align 4, !tbaa !39
  %4 = load i32, ptr %3, align 4, !tbaa !39
  %5 = and i32 %4, 61440
  %6 = icmp eq i32 %5, 32768
  br i1 %6, label %7, label %13

7:                                                ; preds = %1
  %8 = load i32, ptr %3, align 4, !tbaa !39
  %9 = and i32 %8, 64
  %10 = icmp ne i32 %9, 0
  %11 = select i1 %10, i32 493, i32 420
  %12 = or i32 32768, %11
  store i32 %12, ptr %2, align 4
  br label %24

13:                                               ; preds = %1
  %14 = load i32, ptr %3, align 4, !tbaa !39
  %15 = and i32 %14, 61440
  %16 = icmp eq i32 %15, 40960
  br i1 %16, label %17, label %18

17:                                               ; preds = %13
  store i32 40960, ptr %2, align 4
  br label %24

18:                                               ; preds = %13
  %19 = load i32, ptr %3, align 4, !tbaa !39
  %20 = and i32 %19, 61440
  %21 = icmp eq i32 %20, 16384
  br i1 %21, label %22, label %23

22:                                               ; preds = %18
  store i32 16384, ptr %2, align 4
  br label %24

23:                                               ; preds = %18
  store i32 57344, ptr %2, align 4
  br label %24

24:                                               ; preds = %23, %22, %17, %7
  %25 = load i32, ptr %2, align 4
  ret i32 %25
}

; Function Attrs: inlinehint nounwind uwtable
define internal i32 @const_error() #3 {
  ret i32 -1
}

; Function Attrs: inlinehint nounwind uwtable
define internal ptr @_(ptr noundef %0) #3 {
  %2 = alloca ptr, align 8
  %3 = alloca ptr, align 8
  store ptr %0, ptr %3, align 8, !tbaa !11
  %4 = load ptr, ptr %3, align 8, !tbaa !11
  %5 = load i8, ptr %4, align 1, !tbaa !57
  %6 = icmp ne i8 %5, 0
  br i1 %6, label %8, label %7

7:                                                ; preds = %1
  store ptr @.str.23, ptr %2, align 8
  br label %16

8:                                                ; preds = %1
  %9 = load i32, ptr @git_gettext_enabled, align 4, !tbaa !39
  %10 = icmp ne i32 %9, 0
  br i1 %10, label %13, label %11

11:                                               ; preds = %8
  %12 = load ptr, ptr %3, align 8, !tbaa !11
  store ptr %12, ptr %2, align 8
  br label %16

13:                                               ; preds = %8
  %14 = load ptr, ptr %3, align 8, !tbaa !11
  %15 = call ptr @dcgettext(ptr noundef null, ptr noundef %14, i32 noundef 5) #12
  store ptr %15, ptr %2, align 8
  br label %16

16:                                               ; preds = %13, %11, %7
  %17 = load ptr, ptr %2, align 8
  ret ptr %17
}

; Function Attrs: nounwind uwtable
define internal i32 @parse_mode_line(ptr noundef %0, i32 noundef %1, ptr noundef %2) #0 {
  %4 = alloca i32, align 4
  %5 = alloca ptr, align 8
  %6 = alloca i32, align 4
  %7 = alloca ptr, align 8
  %8 = alloca ptr, align 8
  %9 = alloca i32, align 4
  store ptr %0, ptr %5, align 8, !tbaa !11
  store i32 %1, ptr %6, align 4, !tbaa !39
  store ptr %2, ptr %7, align 8, !tbaa !77
  call void @llvm.lifetime.start.p0(i64 8, ptr %8) #12
  %10 = load ptr, ptr %5, align 8, !tbaa !11
  %11 = call i64 @strtoul(ptr noundef %10, ptr noundef %8, i32 noundef 8) #12
  %12 = trunc i64 %11 to i32
  %13 = load ptr, ptr %7, align 8, !tbaa !77
  store i32 %12, ptr %13, align 4, !tbaa !39
  %14 = load ptr, ptr %8, align 8, !tbaa !11
  %15 = load ptr, ptr %5, align 8, !tbaa !11
  %16 = icmp eq ptr %14, %15
  br i1 %16, label %26, label %17

17:                                               ; preds = %3
  %18 = load ptr, ptr %8, align 8, !tbaa !11
  %19 = load i8, ptr %18, align 1, !tbaa !57
  %20 = zext i8 %19 to i64
  %21 = getelementptr inbounds nuw [256 x i8], ptr @sane_ctype, i64 0, i64 %20
  %22 = load i8, ptr %21, align 1, !tbaa !57
  %23 = zext i8 %22 to i32
  %24 = and i32 %23, 1
  %25 = icmp ne i32 %24, 0
  br i1 %25, label %32, label %26

26:                                               ; preds = %17, %3
  %27 = call ptr @_(ptr noundef @.str.131)
  %28 = load i32, ptr %6, align 4, !tbaa !39
  %29 = load ptr, ptr %5, align 8, !tbaa !11
  %30 = call i32 (ptr, ...) @error(ptr noundef %27, i32 noundef %28, ptr noundef %29)
  %31 = call i32 @const_error()
  store i32 %31, ptr %4, align 4
  store i32 1, ptr %9, align 4
  br label %37

32:                                               ; preds = %17
  %33 = load ptr, ptr %7, align 8, !tbaa !77
  %34 = load i32, ptr %33, align 4, !tbaa !39
  %35 = call i32 @canon_mode(i32 noundef %34)
  %36 = load ptr, ptr %7, align 8, !tbaa !77
  store i32 %35, ptr %36, align 4, !tbaa !39
  store i32 0, ptr %4, align 4
  store i32 1, ptr %9, align 4
  br label %37

37:                                               ; preds = %32, %26
  call void @llvm.lifetime.end.p0(i64 8, ptr %8) #12
  %38 = load i32, ptr %4, align 4
  ret i32 %38
}

; Function Attrs: nounwind uwtable
define internal i32 @gitdiff_oldmode(ptr noundef %0, ptr noundef %1, ptr noundef %2) #0 {
  %4 = alloca ptr, align 8
  %5 = alloca ptr, align 8
  %6 = alloca ptr, align 8
  store ptr %0, ptr %4, align 8, !tbaa !97
  store ptr %1, ptr %5, align 8, !tbaa !11
  store ptr %2, ptr %6, align 8, !tbaa !60
  %7 = load ptr, ptr %5, align 8, !tbaa !11
  %8 = load ptr, ptr %4, align 8, !tbaa !97
  %9 = getelementptr inbounds nuw %struct.gitdiff_data, ptr %8, i32 0, i32 1
  %10 = load i32, ptr %9, align 8, !tbaa !85
  %11 = load ptr, ptr %6, align 8, !tbaa !60
  %12 = getelementptr inbounds nuw %struct.patch, ptr %11, i32 0, i32 3
  %13 = call i32 @parse_mode_line(ptr noundef %7, i32 noundef %10, ptr noundef %12)
  ret i32 %13
}